; Function Attrs: mustprogress uwtable
define void @_ZN10MainWindow15applyLastFilterEv(ptr noundef nonnull align 8 dereferenceable(1376) %0) local_unnamed_addr #9 align 2 {
  %2 = getelementptr inbounds i8, ptr %0, i64 1368
  %3 = load ptr, ptr %2, align 8
  %.not.i = icmp eq ptr %3, null
  br i1 %.not.i, label %_ZNK10MainWindow3GLAEv.exit.thread, label %_ZNK10MainWindow3GLAEv.exit

_ZNK10MainWindow3GLAEv.exit:                      ; preds = %1
  %4 = getelementptr inbounds i8, ptr %3, i64 256
  %5 = load ptr, ptr %4, align 8
  %.not = icmp eq ptr %5, null
  br i1 %.not, label %_ZNK10MainWindow3GLAEv.exit.thread, label %_ZNK10MainWindow3GLAEv.exit4

_ZNK10MainWindow3GLAEv.exit4:                     ; preds = %_ZNK10MainWindow3GLAEv.exit
  %6 = getelementptr inbounds i8, ptr %5, i64 1432
  %7 = load ptr, ptr %6, align 8
  %.not1 = icmp eq ptr %7, null
  br i1 %.not1, label %_ZNK10MainWindow3GLAEv.exit.thread, label %_ZNK10MainWindow3GLAEv.exit7

_ZNK10MainWindow3GLAEv.exit7:                     ; preds = %_ZNK10MainWindow3GLAEv.exit4
  tail call void @_ZN10MainWindow11startFilterEPK7QAction(ptr noundef nonnull align 8 dereferenceable(1376) %0, ptr noundef nonnull %7)
  br label %_ZNK10MainWindow3GLAEv.exit.thread

_ZNK10MainWindow3GLAEv.exit.thread:               ; preds = %1, %_ZNK10MainWindow3GLAEv.exit7, %_ZNK10MainWindow3GLAEv.exit4, %_ZNK10MainWindow3GLAEv.exit
  ret void
}